Certificate:
    Data:
        Version: 3 (0x2)
        Serial Number:
            7b:24:8a:a1:32:fc:42:e7:c2:18:9f:59:f6:51:2f:ce
    Signature Algorithm: sha256WithRSAEncryption
        Issuer: CN=ChangeMe
        Validity
            Not Before: Mar  6 02:28:18 2022 GMT
            Not After : Mar  3 02:28:18 2032 GMT
        Subject: CN=server
        Subject Public Key Info:
            Public Key Algorithm: rsaEncryption
                Public-Key: (2048 bit)
                Modulus:
                    00:d2:e1:e0:0f:c9:a5:c2:92:7f:c4:6d:a3:34:7d:
                    46:5a:7b:03:ce:b4:72:e1:3b:06:43:5e:b9:53:b7:
                    7c:1d:9e:b7:33:c7:3a:35:3a:e9:2a:37:92:2b:03:
                    2e:ef:21:f1:ce:a3:b0:94:ab:e4:94:67:82:e9:66:
                    8a:eb:13:55:b7:d4:4b:94:bb:57:a4:cf:51:18:c4:
                    ca:cb:dc:74:41:69:1a:fd:bc:97:3a:ec:95:b8:c1:
                    48:3b:72:b8:cf:fb:fb:63:76:c2:31:97:8e:e6:e7:
                    3a:96:18:71:e1:21:34:2e:ca:5c:93:b1:52:3f:a9:
                    fc:f3:ce:92:cb:da:2c:25:1f:8b:24:52:f4:e3:54:
                    70:e8:cc:79:53:75:aa:e1:37:a2:5e:24:ce:66:5b:
                    1f:ed:60:0a:2e:5d:f1:8c:4c:06:1f:88:02:9e:29:
                    c0:2b:07:d6:88:a8:de:70:21:90:ab:96:92:0e:4c:
                    f3:76:ea:ae:15:fe:47:57:c6:52:8f:8e:cc:cd:83:
                    96:4c:4b:1d:0a:6b:fc:e4:89:84:62:18:09:a1:93:
                    f2:ef:55:0c:55:1d:68:c6:d7:38:78:8b:58:74:31:
                    1d:a9:ff:95:01:17:e0:e5:f2:98:2b:42:f1:64:bf:
                    be:a5:12:cb:f5:60:b6:4e:fe:50:14:7e:54:8f:5c:
                    14:cf
                Exponent: 65537 (0x10001)
        X509v3 extensions:
            X509v3 Basic Constraints: 
                CA:FALSE
            X509v3 Subject Key Identifier: 
                1F:EA:6C:39:70:F4:B6:7E:15:36:8A:07:77:35:E2:74:DC:28:6D:CE
            X509v3 Authority Key Identifier: 
                keyid:9A:3B:19:EA:90:A5:59:77:CE:B5:89:5F:D8:5B:E0:B1:46:11:BF:9E
                DirName:/CN=ChangeMe
                serial:E0:CB:26:B3:79:5F:54:97

            X509v3 Extended Key Usage: 
                TLS Web Server Authentication
            X509v3 Key Usage: 
                Digital Signature, Key Encipherment
            X509v3 Subject Alternative Name: 
                DNS:server
    Signature Algorithm: sha256WithRSAEncryption
         32:0f:67:70:6a:1d:52:ce:4a:8c:6f:07:10:92:c3:86:cd:70:
         16:a4:f8:f8:2e:5d:c8:35:b9:f6:4a:27:cb:7e:4d:f6:a2:1e:
         d7:6e:0f:23:15:db:7e:1c:5b:24:75:f5:9b:4a:d8:81:d3:e6:
         05:44:24:09:8d:b1:95:fb:62:61:b2:9e:a0:18:49:a8:b6:f3:
         49:ba:71:86:a5:50:90:e2:8d:8e:3e:16:76:d0:f4:ea:9b:72:
         88:52:98:b8:67:f7:76:82:57:dc:90:05:9c:44:ec:db:41:41:
         20:8e:c1:56:0d:73:94:39:41:88:a6:81:70:d4:b1:fb:af:2f:
         c1:3b:c2:10:49:eb:87:0c:d4:ea:d8:31:30:61:67:0e:7d:6c:
         49:1d:ab:14:62:fd:a9:4e:7a:cb:7e:9c:cc:8f:af:14:30:d8:
         06:b1:fb:f3:4a:9a:18:fd:d3:3a:2a:3d:bb:c2:5c:75:58:a3:
         14:aa:af:de:af:2f:2b:20:5d:83:8a:c4:5f:79:a2:1a:46:de:
         34:3d:b4:32:05:39:39:99:20:4f:6c:b6:14:ab:d7:73:a3:27:
         ad:81:dd:3e:fd:e4:57:6f:4e:93:d7:f4:ea:74:ca:4e:a6:f0:
         21:d1:38:e2:e5:55:15:0e:7c:1a:fb:34:93:74:98:b2:a6:8c:
         82:15:17:0b
-----BEGIN CERTIFICATE-----
MIIDVjCCAj6gAwIBAgIQeySKoTL8QufCGJ9Z9lEvzjANBgkqhkiG9w0BAQsFADAT
MREwDwYDVQQDDAhDaGFuZ2VNZTAeFw0yMjAzMDYwMjI4MThaFw0zMjAzMDMwMjI4
MThaMBExDzANBgNVBAMMBnNlcnZlcjCCASIwDQYJKoZIhvcNAQEBBQADggEPADCC
AQoCggEBANLh4A/JpcKSf8RtozR9Rlp7A860cuE7BkNeuVO3fB2etzPHOjU66So3
kisDLu8h8c6jsJSr5JRngulmiusTVbfUS5S7V6TPURjEysvcdEFpGv28lzrslbjB
SDtyuM/7+2N2wjGXjubnOpYYceEhNC7KXJOxUj+p/PPOksvaLCUfiyRS9ONUcOjM
eVN1quE3ol4kzmZbH+1gCi5d8YxMBh+IAp4pwCsH1oio3nAhkKuWkg5M83bqrhX+
R1fGUo+OzM2DlkxLHQpr/OSJhGIYCaGT8u9VDFUdaMbXOHiLWHQxHan/lQEX4OXy
mCtC8WS/vqUSy/Vgtk7+UBR+VI9cFM8CAwEAAaOBpzCBpDAJBgNVHRMEAjAAMB0G
A1UdDgQWBBQf6mw5cPS2fhU2igd3NeJ03ChtzjBDBgNVHSMEPDA6gBSaOxnqkKVZ
d861iV/YW+CxRhG/nqEXpBUwEzERMA8GA1UEAwwIQ2hhbmdlTWWCCQDgyyazeV9U
lzATBgNVHSUEDDAKBggrBgEFBQcDATALBgNVHQ8EBAMCBaAwEQYDVR0RBAowCIIG
c2VydmVyMA0GCSqGSIb3DQEBCwUAA4IBAQAyD2dwah1SzkqMbwcQksOGzXAWpPj4
Ll3INbn2SifLfk32oh7Xbg8jFdt+HFskdfWbStiB0+YFRCQJjbGV+2Jhsp6gGEmo
tvNJunGGpVCQ4o2OPhZ20PTqm3KIUpi4Z/d2glfckAWcROzbQUEgjsFWDXOUOUGI
poFw1LH7ry/BO8IQSeuHDNTq2DEwYWcOfWxJHasUYv2pTnrLfpzMj68UMNgGsfvz
SpoY/dM6Kj27wlx1WKMUqq/ery8rIF2DisRfeaIaRt40PbQyBTk5mSBPbLYUq9dz
oyetgd0+/eRXb06T1/TqdMpOpvAh0Tji5VUVDnwa+zSTdJiypoyCFRcL
-----END CERTIFICATE-----
